; Function Attrs: mustprogress nounwind uwtable
define internal fastcc void @_ZN5boost4asio6detail17executor_function4implINS1_7binder2IZNS_6cobalt6detail12main_promise8run_mainENS5_4mainEE4workNS_6system10error_codeEiEESaIvEE3ptrD2Ev(ptr nocapture noundef nonnull align 8 dereferenceable(24) %0) unnamed_addr #7 align 2 personality ptr @__gxx_personality_v0 {
  %2 = getelementptr inbounds nuw i8, ptr %0, i64 16
  %3 = load ptr, ptr %2, align 8, !tbaa !559
  %.not.i = icmp eq ptr %3, null
  br i1 %.not.i, label %5, label %4

4:                                                ; preds = %1
  store ptr null, ptr %2, align 8, !tbaa !559
  br label %5

5:                                                ; preds = %4, %1
  %6 = getelementptr inbounds nuw i8, ptr %0, i64 8
  %7 = load ptr, ptr %6, align 8, !tbaa !561
  %.not1.i = icmp eq ptr %7, null
  br i1 %.not1.i, label %_ZN5boost4asio6detail17executor_function4implINS1_7binder2IZNS_6cobalt6detail12main_promise8run_mainENS5_4mainEE4workNS_6system10error_codeEiEESaIvEE3ptr5resetEv.exit, label %8

8:                                                ; preds = %5
  %9 = tail call align 8 ptr @llvm.threadlocal.address.p0(ptr align 8 @_ZN5boost4asio6detail15keyword_tss_ptrINS1_10call_stackINS1_14thread_contextENS1_16thread_info_baseEE7contextEE6value_E)
  %10 = load ptr, ptr %9, align 8, !tbaa !3
  %.not.i.i.i.i = icmp eq ptr %10, null
  br i1 %.not.i.i.i.i, label %.thread.i.i.i, label %_ZN5boost4asio6detail14thread_context24top_of_thread_call_stackEv.exit.i.i

_ZN5boost4asio6detail14thread_context24top_of_thread_call_stackEv.exit.i.i: ; preds = %8
  %11 = getelementptr inbounds nuw i8, ptr %10, i64 8
  %12 = load ptr, ptr %11, align 8, !tbaa !74
  %.not.i.i = icmp eq ptr %12, null
  br i1 %.not.i.i, label %.thread.i.i.i, label %.preheader.i.i.i

13:                                               ; preds = %.preheader.i.i.i
  %indvars.iv.next.i.i.i = add nuw nsw i64 %indvars.iv.i.i.i, 1
  %exitcond.not.i.i.i = icmp eq i64 %indvars.iv.next.i.i.i, 6
  br i1 %exitcond.not.i.i.i, label %.thread.i.i.i, label %.preheader.i.i.i, !llvm.loop !562

.preheader.i.i.i:                                 ; preds = %_ZN5boost4asio6detail14thread_context24top_of_thread_call_stackEv.exit.i.i, %13
  %indvars.iv.i.i.i = phi i64 [ %indvars.iv.next.i.i.i, %13 ], [ 4, %_ZN5boost4asio6detail14thread_context24top_of_thread_call_stackEv.exit.i.i ]
  %14 = getelementptr inbounds [12 x ptr], ptr %12, i64 0, i64 %indvars.iv.i.i.i
  %15 = load ptr, ptr %14, align 8, !tbaa !3
  %16 = icmp eq ptr %15, null
  br i1 %16, label %17, label %13

17:                                               ; preds = %.preheader.i.i.i
  %18 = getelementptr inbounds [12 x ptr], ptr %12, i64 0, i64 %indvars.iv.i.i.i
  %19 = getelementptr inbounds nuw i8, ptr %7, i64 64
  %20 = load i8, ptr %19, align 1, !tbaa !76
  store i8 %20, ptr %7, align 1, !tbaa !76
  store ptr %7, ptr %18, align 8, !tbaa !3
  br label %_ZN5boost4asio6detail19recycling_allocatorINS1_17executor_function4implINS1_7binder2IZNS_6cobalt6detail12main_promise8run_mainENS6_4mainEE4workNS_6system10error_codeEiEESaIvEEENS1_16thread_info_base21executor_function_tagEE10deallocateEPSF_m.exit.i

.thread.i.i.i:                                    ; preds = %13, %_ZN5boost4asio6detail14thread_context24top_of_thread_call_stackEv.exit.i.i, %8
  tail call void @free(ptr noundef %7) #32
  br label %_ZN5boost4asio6detail19recycling_allocatorINS1_17executor_function4implINS1_7binder2IZNS_6cobalt6detail12main_promise8run_mainENS6_4mainEE4workNS_6system10error_codeEiEESaIvEEENS1_16thread_info_base21executor_function_tagEE10deallocateEPSF_m.exit.i

_ZN5boost4asio6detail19recycling_allocatorINS1_17executor_function4implINS1_7binder2IZNS_6cobalt6detail12main_promise8run_mainENS6_4mainEE4workNS_6system10error_codeEiEESaIvEEENS1_16thread_info_base21executor_function_tagEE10deallocateEPSF_m.exit.i: ; preds = %.thread.i.i.i, %17
  store ptr null, ptr %6, align 8, !tbaa !561
  br label %_ZN5boost4asio6detail17executor_function4implINS1_7binder2IZNS_6cobalt6detail12main_promise8run_mainENS5_4mainEE4workNS_6system10error_codeEiEESaIvEE3ptr5resetEv.exit

_ZN5boost4asio6detail17executor_function4implINS1_7binder2IZNS_6cobalt6detail12main_promise8run_mainENS5_4mainEE4workNS_6system10error_codeEiEESaIvEE3ptr5resetEv.exit: ; preds = %_ZN5boost4asio6detail19recycling_allocatorINS1_17executor_function4implINS1_7binder2IZNS_6cobalt6detail12main_promise8run_mainENS6_4mainEE4workNS_6system10error_codeEiEESaIvEEENS1_16thread_info_base21executor_function_tagEE10deallocateEPSF_m.exit.i, %5
  ret void
}